; Function Attrs: mustprogress nounwind uwtable
define hidden void @_ZNK15XStatPhasePause14register_startERK11TimeInstantI30CompositeCounterRepresentation29CompositeElapsedCounterSourceE(ptr nocapture noundef nonnull readonly align 8 dereferenceable(48) %0, ptr noundef nonnull align 8 dereferenceable(16) %1) unnamed_addr #0 align 2 {
  %3 = alloca %class.LogTargetHandle, align 8
  %4 = getelementptr inbounds i8, ptr %0, i64 16
  %5 = load ptr, ptr %4, align 8
  tail call void @_ZN7GCTimer23register_gc_pause_startEPKcRK11TimeInstantI30CompositeCounterRepresentation29CompositeElapsedCounterSourceE(ptr noundef nonnull align 8 dereferenceable(112) @_ZN10XStatPhase6_timerE, ptr noundef %5, ptr noundef nonnull align 8 dereferenceable(16) %1) #22
  call void @llvm.lifetime.start.p0(i64 16, ptr nonnull %3)
  store i32 2, ptr %3, align 8
  %6 = getelementptr inbounds i8, ptr %3, i64 8
  store ptr @_ZN16LogTagSetMappingILN6LogTag4typeE49ELS1_114ELS1_142ELS1_0ELS1_0ELS1_0EE7_tagsetE, ptr %6, align 8
  %7 = load volatile ptr, ptr getelementptr inbounds (i8, ptr @_ZN16LogTagSetMappingILN6LogTag4typeE49ELS1_114ELS1_142ELS1_0ELS1_0ELS1_0EE7_tagsetE, i64 56), align 8
  %.not.i = icmp eq ptr %7, null
  br i1 %.not.i, label %_ZNK10XStatPhase9log_startE15LogTargetHandleb.exit, label %8

8:                                                ; preds = %2
  %9 = load ptr, ptr %4, align 8
  call void (ptr, ptr, ...) @_ZN15LogTargetHandle5printEPKcz(ptr noundef nonnull align 8 dereferenceable(16) %3, ptr noundef nonnull @.str.13, ptr noundef %9)
  br label %_ZNK10XStatPhase9log_startE15LogTargetHandleb.exit

_ZNK10XStatPhase9log_startE15LogTargetHandleb.exit: ; preds = %2, %8
  call void @llvm.lifetime.end.p0(i64 16, ptr nonnull %3)
  ret void
}